target datalayout = "e-m:e-p270:32:32-p271:32:32-p272:64:64-i64:64-i128:128-f80:128-n8:16:32:64-S128"
target triple = "x86_64-pc-linux-gnu"

%struct._zval_struct = type { %union._zend_value, %union.anon, %union.anon.2 }
%union._zend_value = type { i64 }
%union.anon = type { i32 }
%union.anon.2 = type { i32 }
%struct._zend_execute_data = type { ptr, ptr, ptr, ptr, %struct._zval_struct, ptr, ptr, ptr, ptr }

; Function Attrs: nounwind uwtable
define hidden void @zif_is_nan(ptr noundef %0, ptr noundef %1) #0 {
  %3 = alloca ptr, align 8
  %4 = alloca ptr, align 8
  %5 = alloca i1, align 1
  %6 = alloca ptr, align 8
  %7 = alloca ptr, align 8
  %8 = alloca ptr, align 8
  %9 = alloca i8, align 1
  %10 = alloca i32, align 4
  %11 = alloca ptr, align 8
  %12 = alloca ptr, align 8
  %13 = alloca double, align 8
  %14 = alloca i32, align 4
  %15 = alloca i32, align 4
  %16 = alloca i32, align 4
  %17 = alloca i32, align 4
  %18 = alloca i32, align 4
  %19 = alloca ptr, align 8
  %20 = alloca ptr, align 8
  %21 = alloca i32, align 4
  %22 = alloca ptr, align 8
  %23 = alloca i8, align 1
  %24 = alloca i8, align 1
  %25 = alloca i32, align 4
  store ptr %0, ptr %11, align 8
  store ptr %1, ptr %12, align 8
  br label %26

26:                                               ; preds = %2
  store i32 0, ptr %14, align 4
  store i32 1, ptr %15, align 4
  store i32 1, ptr %16, align 4
  %27 = load ptr, ptr %11, align 8
  %28 = getelementptr inbounds %struct._zend_execute_data, ptr %27, i32 0, i32 4
  %29 = getelementptr inbounds %struct._zval_struct, ptr %28, i32 0, i32 2
  %30 = load i32, ptr %29, align 4
  store i32 %30, ptr %17, align 4
  store i32 0, ptr %18, align 4
  store ptr null, ptr %20, align 8
  store i32 0, ptr %21, align 4
  store ptr null, ptr %22, align 8
  store i8 0, ptr %23, align 1
  store i8 0, ptr %24, align 1
  store i32 0, ptr %25, align 4
  br label %31

31:                                               ; preds = %26
  %32 = load i32, ptr %17, align 4
  %33 = load i32, ptr %15, align 4
  %34 = icmp ult i32 %32, %33
  %35 = xor i1 %34, true
  %36 = xor i1 %35, true
  %37 = zext i1 %36 to i32
  %38 = sext i32 %37 to i64
  %39 = icmp ne i64 %38, 0
  br i1 %39, label %49, label %40

40:                                               ; preds = %31
  %41 = load i32, ptr %17, align 4
  %42 = load i32, ptr %16, align 4
  %43 = icmp ugt i32 %41, %42
  %44 = xor i1 %43, true
  %45 = xor i1 %44, true
  %46 = zext i1 %45 to i32
  %47 = sext i32 %46 to i64
  %48 = icmp ne i64 %47, 0
  br i1 %48, label %49, label %52

49:                                               ; preds = %40, %31
  %50 = load i32, ptr %15, align 4
  %51 = load i32, ptr %16, align 4
  call void @zend_wrong_parameters_count_error(i32 noundef %50, i32 noundef %51)
  store i32 1, ptr %25, align 4
  br label %148

52:                                               ; preds = %40
  %53 = load ptr, ptr %11, align 8
  %54 = getelementptr inbounds %struct._zval_struct, ptr %53, i64 4
  store ptr %54, ptr %19, align 8
  %55 = load i32, ptr %18, align 4
  %56 = add i32 %55, 1
  store i32 %56, ptr %18, align 4
  %57 = load i32, ptr %18, align 4
  %58 = load i32, ptr %15, align 4
  %59 = icmp ule i32 %57, %58
  br i1 %59, label %65, label %60

60:                                               ; preds = %52
  %61 = load i8, ptr %24, align 1
  %62 = trunc i8 %61 to i1
  %63 = zext i1 %62 to i32
  %64 = icmp eq i32 %63, 1
  br label %65

65:                                               ; preds = %60, %52
  %66 = phi i1 [ true, %52 ], [ %64, %60 ]
  call void @llvm.assume(i1 %66)
  %67 = load i32, ptr %18, align 4
  %68 = load i32, ptr %15, align 4
  %69 = icmp ugt i32 %67, %68
  br i1 %69, label %75, label %70

70:                                               ; preds = %65
  %71 = load i8, ptr %24, align 1
  %72 = trunc i8 %71 to i1
  %73 = zext i1 %72 to i32
  %74 = icmp eq i32 %73, 0
  br label %75

75:                                               ; preds = %70, %65
  %76 = phi i1 [ true, %65 ], [ %74, %70 ]
  call void @llvm.assume(i1 %76)
  %77 = load i8, ptr %24, align 1
  %78 = trunc i8 %77 to i1
  br i1 %78, label %79, label %90

79:                                               ; preds = %75
  %80 = load i32, ptr %18, align 4
  %81 = load i32, ptr %17, align 4
  %82 = icmp ugt i32 %80, %81
  %83 = xor i1 %82, true
  %84 = xor i1 %83, true
  %85 = zext i1 %84 to i32
  %86 = sext i32 %85 to i64
  %87 = icmp ne i64 %86, 0
  br i1 %87, label %88, label %89

88:                                               ; preds = %79
  br label %148

89:                                               ; preds = %79
  br label %90

90:                                               ; preds = %89, %75
  %91 = load ptr, ptr %19, align 8
  %92 = getelementptr inbounds %struct._zval_struct, ptr %91, i32 1
  store ptr %92, ptr %19, align 8
  %93 = load ptr, ptr %19, align 8
  store ptr %93, ptr %20, align 8
  %94 = load ptr, ptr %20, align 8
  %95 = load i32, ptr %18, align 4
  store ptr %94, ptr %6, align 8
  store ptr %13, ptr %7, align 8
  store ptr %23, ptr %8, align 8
  store i8 0, ptr %9, align 1
  store i32 %95, ptr %10, align 4
  %96 = load i8, ptr %9, align 1
  %97 = trunc i8 %96 to i1
  br i1 %97, label %98, label %100

98:                                               ; preds = %90
  %99 = load ptr, ptr %8, align 8
  store i8 0, ptr %99, align 1
  br label %100

100:                                              ; preds = %98, %90
  %101 = load ptr, ptr %6, align 8
  store ptr %101, ptr %3, align 8
  %102 = load ptr, ptr %3, align 8
  %103 = getelementptr inbounds %struct._zval_struct, ptr %102, i32 0, i32 1
  %104 = load i8, ptr %103, align 8
  %105 = zext i8 %104 to i32
  %106 = icmp eq i32 %105, 5
  br i1 %106, label %107, label %111

107:                                              ; preds = %100
  %108 = load ptr, ptr %6, align 8
  %109 = load double, ptr %108, align 8
  %110 = load ptr, ptr %7, align 8
  store double %109, ptr %110, align 8
  br label %129

111:                                              ; preds = %100
  %112 = load i8, ptr %9, align 1
  %113 = trunc i8 %112 to i1
  br i1 %113, label %114, label %124

114:                                              ; preds = %111
  %115 = load ptr, ptr %6, align 8
  store ptr %115, ptr %4, align 8
  %116 = load ptr, ptr %4, align 8
  %117 = getelementptr inbounds %struct._zval_struct, ptr %116, i32 0, i32 1
  %118 = load i8, ptr %117, align 8
  %119 = zext i8 %118 to i32
  %120 = icmp eq i32 %119, 1
  br i1 %120, label %121, label %124

121:                                              ; preds = %114
  %122 = load ptr, ptr %8, align 8
  store i8 1, ptr %122, align 1
  %123 = load ptr, ptr %7, align 8
  store double 0.000000e+00, ptr %123, align 8
  br label %129

124:                                              ; preds = %114, %111
  %125 = load ptr, ptr %6, align 8
  %126 = load ptr, ptr %7, align 8
  %127 = load i32, ptr %10, align 4
  %128 = call zeroext i1 @zend_parse_arg_double_slow(ptr noundef %125, ptr noundef %126, i32 noundef %127) #12
  store i1 %128, ptr %5, align 1
  br label %130

129:                                              ; preds = %121, %107
  store i1 true, ptr %5, align 1
  br label %130

130:                                              ; preds = %129, %124
  %131 = load i1, ptr %5, align 1
  %132 = xor i1 %131, true
  %133 = xor i1 %132, true
  %134 = xor i1 %133, true
  %135 = zext i1 %134 to i32
  %136 = sext i32 %135 to i64
  %137 = icmp ne i64 %136, 0
  br i1 %137, label %138, label %139

138:                                              ; preds = %130
  store i32 20, ptr %21, align 4
  store i32 9, ptr %25, align 4
  br label %148

139:                                              ; preds = %130
  %140 = load i32, ptr %18, align 4
  %141 = load i32, ptr %16, align 4
  %142 = icmp eq i32 %140, %141
  br i1 %142, label %146, label %143

143:                                              ; preds = %139
  %144 = load i32, ptr %16, align 4
  %145 = icmp eq i32 %144, -1
  br label %146

146:                                              ; preds = %143, %139
  %147 = phi i1 [ true, %139 ], [ %145, %143 ]
  call void @llvm.assume(i1 %147)
  br label %148

148:                                              ; preds = %146, %138, %88, %49
  %149 = load i32, ptr %25, align 4
  %150 = icmp ne i32 %149, 0
  %151 = xor i1 %150, true
  %152 = xor i1 %151, true
  %153 = zext i1 %152 to i32
  %154 = sext i32 %153 to i64
  %155 = icmp ne i64 %154, 0
  br i1 %155, label %156, label %162

156:                                              ; preds = %148
  %157 = load i32, ptr %25, align 4
  %158 = load i32, ptr %18, align 4
  %159 = load ptr, ptr %22, align 8
  %160 = load i32, ptr %21, align 4
  %161 = load ptr, ptr %20, align 8
  call void @zend_wrong_parameter_error(i32 noundef %157, i32 noundef %158, ptr noundef %159, i32 noundef %160, ptr noundef %161)
  br label %172

162:                                              ; preds = %148
  br label %163

163:                                              ; preds = %162
  br label %164

164:                                              ; preds = %163
  br label %165

165:                                              ; preds = %164
  %166 = load double, ptr %13, align 8
  %167 = call i1 @llvm.is.fpclass.f64(double %166, i32 3)
  %168 = select i1 %167, i32 3, i32 2
  %169 = load ptr, ptr %12, align 8
  %170 = getelementptr inbounds %struct._zval_struct, ptr %169, i32 0, i32 1
  store i32 %168, ptr %170, align 8
  br label %171

171:                                              ; preds = %165
  br label %172

172:                                              ; preds = %171, %156
  ret void
}